; Function Attrs: mustprogress uwtable
define hidden void @_ZN4lean11update_sortERKNS_4exprERKNS_5levelE(ptr dead_on_unwind noalias writable writeonly sret(%"class.lean::expr") align 8 captures(none) initializes((0, 8)) %0, ptr noundef nonnull readonly align 8 captures(none) dereferenceable(8) %1, ptr noundef nonnull readonly align 8 captures(none) dereferenceable(8) %2) local_unnamed_addr #0 {
  %4 = load ptr, ptr %1, align 8, !tbaa !10
  %5 = getelementptr inbounds nuw i8, ptr %4, i64 8
  %6 = load ptr, ptr %5, align 8, !tbaa !10
  %7 = load ptr, ptr %2, align 8, !tbaa !10
  %8 = icmp eq ptr %6, %7
  br i1 %8, label %20, label %9

9:                                                ; preds = %3
  tail call void @llvm.experimental.noalias.scope.decl(metadata !101)
  %10 = ptrtoint ptr %7 to i64
  %11 = and i64 %10, 1
  %.not.i.i.i = icmp eq i64 %11, 0
  br i1 %.not.i.i.i, label %12, label %_ZN4lean7mk_sortERKNS_5levelE.exit

12:                                               ; preds = %9
  %.val.i.i.i.i = load i32, ptr %7, align 4, !tbaa !21, !noalias !101
  %13 = icmp sgt i32 %.val.i.i.i.i, 0
  br i1 %13, label %14, label %16, !prof !24

14:                                               ; preds = %12
  %15 = add nuw nsw i32 %.val.i.i.i.i, 1
  store i32 %15, ptr %7, align 4, !tbaa !21, !noalias !101
  br label %_ZN4lean7mk_sortERKNS_5levelE.exit

16:                                               ; preds = %12
  %.not.i.i.i.i = icmp eq i32 %.val.i.i.i.i, 0
  br i1 %.not.i.i.i.i, label %_ZN4lean7mk_sortERKNS_5levelE.exit, label %17

17:                                               ; preds = %16
  tail call void @lean_inc_ref_cold(ptr noundef nonnull %7), !noalias !101
  %.pre.i.i = load ptr, ptr %2, align 8, !tbaa !10, !noalias !101
  br label %_ZN4lean7mk_sortERKNS_5levelE.exit

_ZN4lean7mk_sortERKNS_5levelE.exit:               ; preds = %9, %14, %16, %17
  %18 = phi ptr [ %7, %9 ], [ %7, %14 ], [ %7, %16 ], [ %.pre.i.i, %17 ]
  %19 = tail call ptr @lean_expr_mk_sort(ptr noundef %18), !noalias !101
  store ptr %19, ptr %0, align 8, !tbaa !10, !alias.scope !101
  br label %_ZN4lean4exprC2ERKS0_.exit

20:                                               ; preds = %3
  store ptr %4, ptr %0, align 8, !tbaa !10
  %21 = ptrtoint ptr %4 to i64
  %22 = and i64 %21, 1
  %.not.i.i.i4 = icmp eq i64 %22, 0
  br i1 %.not.i.i.i4, label %23, label %_ZN4lean4exprC2ERKS0_.exit

23:                                               ; preds = %20
  %.val.i.i.i.i5 = load i32, ptr %4, align 4, !tbaa !21
  %24 = icmp sgt i32 %.val.i.i.i.i5, 0
  br i1 %24, label %25, label %27, !prof !24

25:                                               ; preds = %23
  %26 = add nuw nsw i32 %.val.i.i.i.i5, 1
  store i32 %26, ptr %4, align 4, !tbaa !21
  br label %_ZN4lean4exprC2ERKS0_.exit

27:                                               ; preds = %23
  %.not.i.i.i.i6 = icmp eq i32 %.val.i.i.i.i5, 0
  br i1 %.not.i.i.i.i6, label %_ZN4lean4exprC2ERKS0_.exit, label %28

28:                                               ; preds = %27
  tail call void @lean_inc_ref_cold(ptr noundef nonnull %4)
  br label %_ZN4lean4exprC2ERKS0_.exit

_ZN4lean4exprC2ERKS0_.exit:                       ; preds = %28, %27, %25, %20, %_ZN4lean7mk_sortERKNS_5levelE.exit
  ret void
}